target datalayout = "e-m:e-p270:32:32-p271:32:32-p272:64:64-i64:64-i128:128-f80:128-n8:16:32:64-S128"
target triple = "x86_64-pc-linux-gnu"

%struct.expert_field = type { i32, i32 }
%struct.MessageHeader = type { [4 x i8], %struct.Version, i8, i8, i32, i32, i32, ptr }
%struct.Version = type { i8, i8 }

@hf_Tango_DevInfo_dev_class = internal global i32 0, align 4
@hf_Tango_DevInfo_server_id = internal global i32 0, align 4
@hf_Tango_DevInfo_server_host = internal global i32 0, align 4
@hf_Tango_DevInfo_server_version = internal global i32 0, align 4
@hf_Tango_DevInfo_doc_url = internal global i32 0, align 4
@ei_tango_unknown_giop_msg = internal global %struct.expert_field zeroinitializer, align 4
@ei_tango_unknown_exception = internal global %struct.expert_field zeroinitializer, align 4
@ett_giop_struct = internal global i32 0, align 4
@boundary = internal global i32 12, align 4
@.str.771 = private unnamed_addr constant [21 x i8] c"Unknown exception %d\00", align 1
@.str.772 = private unnamed_addr constant [24 x i8] c"Unknown GIOP message %d\00", align 1
@.str.888 = private unnamed_addr constant [21 x i8] c"struct Tango_DevInfo\00", align 1

; Function Attrs: null_pointer_is_valid sspstrong uwtable
define internal void @decode_Tango_DevInfo_st(ptr noundef %0, ptr noundef %1, ptr noundef %2, ptr noundef %3, ptr noundef %4, ptr noundef %5, ptr noundef %6, i1 noundef zeroext %7) #0 {
  %9 = alloca ptr, align 8
  %10 = alloca ptr, align 8
  %11 = alloca ptr, align 8
  %12 = alloca ptr, align 8
  %13 = alloca ptr, align 8
  %14 = alloca ptr, align 8
  %15 = alloca ptr, align 8
  %16 = alloca i8, align 1
  store ptr %0, ptr %9, align 8
  store ptr %1, ptr %10, align 8
  store ptr %2, ptr %11, align 8
  store ptr %3, ptr %12, align 8
  store ptr %4, ptr %13, align 8
  store ptr %5, ptr %14, align 8
  store ptr %6, ptr %15, align 8
  %17 = zext i1 %7 to i8
  store i8 %17, ptr %16, align 1
  %18 = load ptr, ptr %11, align 8
  %19 = load ptr, ptr %9, align 8
  %20 = load ptr, ptr %13, align 8
  %21 = load i8, ptr %16, align 1, !range !6, !noundef !7
  %22 = trunc i8 %21 to i1
  %23 = load i32, ptr @boundary, align 4
  %24 = load i32, ptr @hf_Tango_DevInfo_dev_class, align 4
  call void @giop_add_CDR_string(ptr noundef %18, ptr noundef %19, ptr noundef %20, i1 noundef zeroext %22, i32 noundef %23, i32 noundef %24)
  %25 = load ptr, ptr %11, align 8
  %26 = load ptr, ptr %9, align 8
  %27 = load ptr, ptr %13, align 8
  %28 = load i8, ptr %16, align 1, !range !6, !noundef !7
  %29 = trunc i8 %28 to i1
  %30 = load i32, ptr @boundary, align 4
  %31 = load i32, ptr @hf_Tango_DevInfo_server_id, align 4
  call void @giop_add_CDR_string(ptr noundef %25, ptr noundef %26, ptr noundef %27, i1 noundef zeroext %29, i32 noundef %30, i32 noundef %31)
  %32 = load ptr, ptr %11, align 8
  %33 = load ptr, ptr %9, align 8
  %34 = load ptr, ptr %13, align 8
  %35 = load i8, ptr %16, align 1, !range !6, !noundef !7
  %36 = trunc i8 %35 to i1
  %37 = load i32, ptr @boundary, align 4
  %38 = load i32, ptr @hf_Tango_DevInfo_server_host, align 4
  call void @giop_add_CDR_string(ptr noundef %32, ptr noundef %33, ptr noundef %34, i1 noundef zeroext %36, i32 noundef %37, i32 noundef %38)
  %39 = load ptr, ptr %11, align 8
  %40 = load i32, ptr @hf_Tango_DevInfo_server_version, align 4
  %41 = load ptr, ptr %9, align 8
  %42 = load ptr, ptr %13, align 8
  %43 = load i32, ptr %42, align 4
  %44 = sub i32 %43, 4
  %45 = load ptr, ptr %9, align 8
  %46 = load ptr, ptr %13, align 8
  %47 = load i8, ptr %16, align 1, !range !6, !noundef !7
  %48 = trunc i8 %47 to i1
  %49 = load i32, ptr @boundary, align 4
  %50 = call i32 @get_CDR_long(ptr noundef %45, ptr noundef %46, i1 noundef zeroext %48, i32 noundef %49)
  %51 = call ptr @proto_tree_add_int(ptr noundef %39, i32 noundef %40, ptr noundef %41, i32 noundef %44, i32 noundef 4, i32 noundef %50)
  %52 = load ptr, ptr %11, align 8
  %53 = load ptr, ptr %9, align 8
  %54 = load ptr, ptr %13, align 8
  %55 = load i8, ptr %16, align 1, !range !6, !noundef !7
  %56 = trunc i8 %55 to i1
  %57 = load i32, ptr @boundary, align 4
  %58 = load i32, ptr @hf_Tango_DevInfo_doc_url, align 4
  call void @giop_add_CDR_string(ptr noundef %52, ptr noundef %53, ptr noundef %54, i1 noundef zeroext %56, i32 noundef %57, i32 noundef %58)
  ret void
}

; Function Attrs: null_pointer_is_valid sspstrong uwtable
define internal void @decode_Tango_Device_info(ptr noundef %0, ptr noundef %1, ptr noundef %2, ptr noundef %3, ptr noundef %4, ptr noundef %5, ptr noundef %6, i1 noundef zeroext %7) #0 {
  %9 = alloca ptr, align 8
  %10 = alloca ptr, align 8
  %11 = alloca ptr, align 8
  %12 = alloca ptr, align 8
  %13 = alloca ptr, align 8
  %14 = alloca ptr, align 8
  %15 = alloca ptr, align 8
  %16 = alloca i8, align 1
  %17 = alloca ptr, align 8
  store ptr %0, ptr %9, align 8
  store ptr %1, ptr %10, align 8
  store ptr %2, ptr %11, align 8
  store ptr %3, ptr %12, align 8
  store ptr %4, ptr %13, align 8
  store ptr %5, ptr %14, align 8
  store ptr %6, ptr %15, align 8
  %18 = zext i1 %7 to i8
  store i8 %18, ptr %16, align 1
  %19 = load ptr, ptr %14, align 8
  %20 = getelementptr inbounds nuw %struct.MessageHeader, ptr %19, i32 0, i32 3
  %21 = load i8, ptr %20, align 1
  %22 = zext i8 %21 to i32
  switch i32 %22, label %51 [
    i32 0, label %59
    i32 1, label %23
  ]

23:                                               ; preds = %8
  %24 = load ptr, ptr %14, align 8
  %25 = getelementptr inbounds nuw %struct.MessageHeader, ptr %24, i32 0, i32 6
  %26 = load i32, ptr %25, align 8
  switch i32 %26, label %43 [
    i32 0, label %27
    i32 1, label %50
  ]

27:                                               ; preds = %23
  call void @llvm.lifetime.start.p0(i64 8, ptr %17) #6
  %28 = load ptr, ptr %11, align 8
  %29 = load ptr, ptr %9, align 8
  %30 = load ptr, ptr %13, align 8
  %31 = load i32, ptr %30, align 4
  %32 = load i32, ptr @ett_giop_struct, align 4
  %33 = call ptr @proto_tree_add_subtree(ptr noundef %28, ptr noundef %29, i32 noundef %31, i32 noundef -1, i32 noundef %32, ptr noundef null, ptr noundef @.str.888)
  store ptr %33, ptr %17, align 8
  %34 = load ptr, ptr %9, align 8
  %35 = load ptr, ptr %10, align 8
  %36 = load ptr, ptr %17, align 8
  %37 = load ptr, ptr %12, align 8
  %38 = load ptr, ptr %13, align 8
  %39 = load ptr, ptr %14, align 8
  %40 = load ptr, ptr %15, align 8
  %41 = load i8, ptr %16, align 1, !range !6, !noundef !7
  %42 = trunc i8 %41 to i1
  call void @decode_Tango_DevInfo_st(ptr noundef %34, ptr noundef %35, ptr noundef %36, ptr noundef %37, ptr noundef %38, ptr noundef %39, ptr noundef %40, i1 noundef zeroext %42)
  call void @llvm.lifetime.end.p0(i64 8, ptr %17) #6
  br label %50

43:                                               ; preds = %23
  %44 = load ptr, ptr %10, align 8
  %45 = load ptr, ptr %12, align 8
  %46 = load ptr, ptr %14, align 8
  %47 = getelementptr inbounds nuw %struct.MessageHeader, ptr %46, i32 0, i32 6
  %48 = load i32, ptr %47, align 8
  %49 = call ptr (ptr, ptr, ptr, ptr, ...) @expert_add_info_format(ptr noundef %44, ptr noundef %45, ptr noundef @ei_tango_unknown_exception, ptr noundef @.str.771, i32 noundef %48)
  br label %50

50:                                               ; preds = %43, %23, %27
  br label %59

51:                                               ; preds = %8
  %52 = load ptr, ptr %10, align 8
  %53 = load ptr, ptr %12, align 8
  %54 = load ptr, ptr %14, align 8
  %55 = getelementptr inbounds nuw %struct.MessageHeader, ptr %54, i32 0, i32 3
  %56 = load i8, ptr %55, align 1
  %57 = zext i8 %56 to i32
  %58 = call ptr (ptr, ptr, ptr, ptr, ...) @expert_add_info_format(ptr noundef %52, ptr noundef %53, ptr noundef @ei_tango_unknown_giop_msg, ptr noundef @.str.772, i32 noundef %57)
  br label %59

59:                                               ; preds = %51, %50, %8
  ret void
}