; Function Attrs: null_pointer_is_valid sspstrong uwtable
define internal fastcc void @decode_Tango_Device_info(ptr noundef %0, ptr noundef %1, ptr noundef %2, ptr noundef %3, ptr noundef %4, ptr noundef readonly captures(none) %5, i1 noundef zeroext %6) unnamed_addr #0 {
  %8 = getelementptr inbounds nuw i8, ptr %5, i64 7
  %9 = load i8, ptr %8, align 1
  switch i8 %9, label %28 [
    i8 0, label %31
    i8 1, label %10
  ]

10:                                               ; preds = %7
  %11 = getelementptr inbounds nuw i8, ptr %5, i64 16
  %12 = load i32, ptr %11, align 8
  switch i32 %12, label %26 [
    i32 0, label %13
    i32 1, label %31
  ]

13:                                               ; preds = %10
  %14 = load i32, ptr %4, align 4
  %15 = load i32, ptr @ett_giop_struct, align 4
  %16 = tail call ptr @proto_tree_add_subtree(ptr noundef %2, ptr noundef %0, i32 noundef %14, i32 noundef -1, i32 noundef %15, ptr noundef null, ptr noundef nonnull @.str.888)
  %17 = load i32, ptr @hf_Tango_DevInfo_dev_class, align 4
  tail call void @giop_add_CDR_string(ptr noundef %16, ptr noundef %0, ptr noundef %4, i1 noundef zeroext %6, i32 noundef 12, i32 noundef %17)
  %18 = load i32, ptr @hf_Tango_DevInfo_server_id, align 4
  tail call void @giop_add_CDR_string(ptr noundef %16, ptr noundef %0, ptr noundef %4, i1 noundef zeroext %6, i32 noundef 12, i32 noundef %18)
  %19 = load i32, ptr @hf_Tango_DevInfo_server_host, align 4
  tail call void @giop_add_CDR_string(ptr noundef %16, ptr noundef %0, ptr noundef %4, i1 noundef zeroext %6, i32 noundef 12, i32 noundef %19)
  %20 = load i32, ptr @hf_Tango_DevInfo_server_version, align 4
  %21 = load i32, ptr %4, align 4
  %22 = add i32 %21, -4
  %23 = tail call i32 @get_CDR_long(ptr noundef %0, ptr noundef %4, i1 noundef zeroext %6, i32 noundef 12)
  %24 = tail call ptr @proto_tree_add_int(ptr noundef %16, i32 noundef %20, ptr noundef %0, i32 noundef %22, i32 noundef 4, i32 noundef %23)
  %25 = load i32, ptr @hf_Tango_DevInfo_doc_url, align 4
  tail call void @giop_add_CDR_string(ptr noundef %16, ptr noundef %0, ptr noundef %4, i1 noundef zeroext %6, i32 noundef 12, i32 noundef %25)
  br label %31

26:                                               ; preds = %10
  %27 = tail call ptr (ptr, ptr, ptr, ptr, ...) @expert_add_info_format(ptr noundef %1, ptr noundef %3, ptr noundef nonnull @ei_tango_unknown_exception, ptr noundef nonnull @.str.771, i32 noundef %12)
  br label %31

28:                                               ; preds = %7
  %29 = zext i8 %9 to i32
  %30 = tail call ptr (ptr, ptr, ptr, ptr, ...) @expert_add_info_format(ptr noundef %1, ptr noundef %3, ptr noundef nonnull @ei_tango_unknown_giop_msg, ptr noundef nonnull @.str.772, i32 noundef %29)
  br label %31

31:                                               ; preds = %10, %13, %26, %28, %7
  ret void
}